target datalayout = "e-m:e-p270:32:32-p271:32:32-p272:64:64-i64:64-i128:128-f80:128-n8:16:32:64-S128"
target triple = "x86_64-pc-linux-gnu"

%class.cmCommonTargetGenerator = type { ptr, ptr, ptr, ptr, ptr, %"class.std::vector", i8, %"class.std::map" }
%"class.std::vector" = type { %"struct.std::_Vector_base" }
%"struct.std::_Vector_base" = type { %"struct.std::_Vector_base<std::__cxx11::basic_string<char>, std::allocator<std::__cxx11::basic_string<char>>>::_Vector_impl" }
%"struct.std::_Vector_base<std::__cxx11::basic_string<char>, std::allocator<std::__cxx11::basic_string<char>>>::_Vector_impl" = type { %"struct.std::_Vector_base<std::__cxx11::basic_string<char>, std::allocator<std::__cxx11::basic_string<char>>>::_Vector_impl_data" }
%"struct.std::_Vector_base<std::__cxx11::basic_string<char>, std::allocator<std::__cxx11::basic_string<char>>>::_Vector_impl_data" = type { ptr, ptr, ptr }
%"class.std::map" = type { %"class.std::_Rb_tree" }
%"class.std::_Rb_tree" = type { %"struct.std::_Rb_tree<std::__cxx11::basic_string<char>, std::pair<const std::__cxx11::basic_string<char>, cmCommonTargetGenerator::ByConfig>, std::_Select1st<std::pair<const std::__cxx11::basic_string<char>, cmCommonTargetGenerator::ByConfig>>, std::less<std::__cxx11::basic_string<char>>>::_Rb_tree_impl" }
%"struct.std::_Rb_tree<std::__cxx11::basic_string<char>, std::pair<const std::__cxx11::basic_string<char>, cmCommonTargetGenerator::ByConfig>, std::_Select1st<std::pair<const std::__cxx11::basic_string<char>, cmCommonTargetGenerator::ByConfig>>, std::less<std::__cxx11::basic_string<char>>>::_Rb_tree_impl" = type { %"struct.std::_Rb_tree_key_compare", %"struct.std::_Rb_tree_header" }
%"struct.std::_Rb_tree_key_compare" = type { %"struct.std::less" }
%"struct.std::less" = type { i8 }
%"struct.std::_Rb_tree_header" = type { %"struct.std::_Rb_tree_node_base", i64 }
%"struct.std::_Rb_tree_node_base" = type { i32, ptr, ptr, ptr }

@.str.4 = private unnamed_addr constant [15 x i8] c"static library\00", align 1
@.str.5 = private unnamed_addr constant [15 x i8] c"shared library\00", align 1
@.str.6 = private unnamed_addr constant [23 x i8] c"CFBundle shared module\00", align 1
@.str.7 = private unnamed_addr constant [14 x i8] c"shared module\00", align 1
@.str.8 = private unnamed_addr constant [11 x i8] c"executable\00", align 1

; Function Attrs: mustprogress nounwind uwtable
define linkonce_odr dso_local noundef ptr @_ZNK22cmNinjaTargetGenerator18GetGeneratorTargetEv(ptr noundef nonnull align 8 dereferenceable(240) %0) #5 comdat align 2 {
  %2 = alloca ptr, align 8
  store ptr %0, ptr %2, align 8
  %3 = load ptr, ptr %2, align 8
  %4 = getelementptr inbounds %class.cmCommonTargetGenerator, ptr %3, i32 0, i32 1
  %5 = load ptr, ptr %4, align 8
  ret ptr %5
}

; Function Attrs: mustprogress uwtable
define dso_local noundef ptr @_ZNK28cmNinjaNormalTargetGenerator18GetVisibleTypeNameEv(ptr noundef nonnull align 8 dereferenceable(272) %0) #4 align 2 {
  %2 = alloca ptr, align 8
  %3 = alloca ptr, align 8
  store ptr %0, ptr %3, align 8
  %4 = load ptr, ptr %3, align 8
  %5 = call noundef ptr @_ZNK22cmNinjaTargetGenerator18GetGeneratorTargetEv(ptr noundef nonnull align 8 dereferenceable(240) %4)
  %6 = call noundef i32 @_ZNK17cmGeneratorTarget7GetTypeEv(ptr noundef nonnull align 8 dereferenceable(2728) %5)
  switch i32 %6, label %15 [
    i32 1, label %7
    i32 2, label %8
    i32 3, label %9
    i32 0, label %14
  ]

7:                                                ; preds = %1
  store ptr @.str.4, ptr %2, align 8
  br label %16

8:                                                ; preds = %1
  store ptr @.str.5, ptr %2, align 8
  br label %16

9:                                                ; preds = %1
  %10 = call noundef ptr @_ZNK22cmNinjaTargetGenerator18GetGeneratorTargetEv(ptr noundef nonnull align 8 dereferenceable(240) %4)
  %11 = call noundef zeroext i1 @_ZNK17cmGeneratorTarget17IsCFBundleOnAppleEv(ptr noundef nonnull align 8 dereferenceable(2728) %10)
  br i1 %11, label %12, label %13

12:                                               ; preds = %9
  store ptr @.str.6, ptr %2, align 8
  br label %16

13:                                               ; preds = %9
  store ptr @.str.7, ptr %2, align 8
  br label %16

14:                                               ; preds = %1
  store ptr @.str.8, ptr %2, align 8
  br label %16

15:                                               ; preds = %1
  store ptr null, ptr %2, align 8
  br label %16

16:                                               ; preds = %15, %14, %13, %12, %8, %7
  %17 = load ptr, ptr %2, align 8
  ret ptr %17
}