; Function Attrs: mustprogress uwtable
define dso_local noundef ptr @_ZNK28cmNinjaNormalTargetGenerator18GetVisibleTypeNameEv(ptr nocapture noundef nonnull readonly align 8 dereferenceable(272) %0) local_unnamed_addr #3 align 2 {
  %2 = getelementptr inbounds i8, ptr %0, i64 8
  %3 = load ptr, ptr %2, align 8
  %4 = tail call noundef i32 @_ZNK17cmGeneratorTarget7GetTypeEv(ptr noundef nonnull align 8 dereferenceable(2728) %3)
  switch i32 %4, label %10 [
    i32 1, label %11
    i32 2, label %5
    i32 3, label %6
    i32 0, label %9
  ]

5:                                                ; preds = %1
  br label %11

6:                                                ; preds = %1
  %7 = load ptr, ptr %2, align 8
  %8 = tail call noundef zeroext i1 @_ZNK17cmGeneratorTarget17IsCFBundleOnAppleEv(ptr noundef nonnull align 8 dereferenceable(2728) %7)
  %.str.6..str.7 = select i1 %8, ptr @.str.6, ptr @.str.7
  br label %11

9:                                                ; preds = %1
  br label %11

10:                                               ; preds = %1
  br label %11

11:                                               ; preds = %6, %1, %10, %9, %5
  %.0 = phi ptr [ null, %10 ], [ @.str.8, %9 ], [ @.str.5, %5 ], [ @.str.4, %1 ], [ %.str.6..str.7, %6 ]
  ret ptr %.0
}